; Function Attrs: mustprogress uwtable
define void @_ZN7testing8internal24XmlUnitTestResultPrinter21OutputXmlCDataSectionEPSoPKc(ptr noundef nonnull %0, ptr noundef %1) local_unnamed_addr #3 align 2 {
  %3 = tail call noundef nonnull align 8 dereferenceable(8) ptr @_ZSt16__ostream_insertIcSt11char_traitsIcEERSt13basic_ostreamIT_T0_ES6_PKS3_l(ptr noundef nonnull align 8 dereferenceable(8) %0, ptr noundef nonnull @.str.278, i64 noundef 9)
  %4 = tail call noundef ptr @strstr(ptr noundef nonnull dereferenceable(1) %1, ptr noundef nonnull dereferenceable(1) @.str.279) #63
  %.not18 = icmp eq ptr %4, null
  br i1 %.not18, label %._crit_edge, label %.lr.ph

.lr.ph:                                           ; preds = %2, %.lr.ph
  %5 = phi ptr [ %12, %.lr.ph ], [ %4, %2 ]
  %.01319 = phi ptr [ %11, %.lr.ph ], [ %1, %2 ]
  %6 = ptrtoint ptr %5 to i64
  %7 = ptrtoint ptr %.01319 to i64
  %8 = sub i64 %6, %7
  %9 = tail call noundef nonnull align 8 dereferenceable(8) ptr @_ZNSo5writeEPKcl(ptr noundef nonnull align 8 dereferenceable(8) %0, ptr noundef nonnull %.01319, i64 noundef %8)
  %10 = tail call noundef nonnull align 8 dereferenceable(8) ptr @_ZSt16__ostream_insertIcSt11char_traitsIcEERSt13basic_ostreamIT_T0_ES6_PKS3_l(ptr noundef nonnull align 8 dereferenceable(8) %0, ptr noundef nonnull @.str.280, i64 noundef 18)
  %11 = getelementptr inbounds nuw i8, ptr %5, i64 3
  %12 = tail call noundef ptr @strstr(ptr noundef nonnull dereferenceable(1) %11, ptr noundef nonnull dereferenceable(1) @.str.279) #63
  %.not = icmp eq ptr %12, null
  br i1 %.not, label %._crit_edge, label %.lr.ph

._crit_edge:                                      ; preds = %.lr.ph, %2
  %.013.lcssa = phi ptr [ %1, %2 ], [ %11, %.lr.ph ]
  %13 = tail call noundef i64 @strlen(ptr noundef nonnull dereferenceable(1) %.013.lcssa) #57
  %14 = tail call noundef nonnull align 8 dereferenceable(8) ptr @_ZSt16__ostream_insertIcSt11char_traitsIcEERSt13basic_ostreamIT_T0_ES6_PKS3_l(ptr noundef nonnull align 8 dereferenceable(8) %0, ptr noundef nonnull %.013.lcssa, i64 noundef %13)
  %15 = tail call noundef nonnull align 8 dereferenceable(8) ptr @_ZSt16__ostream_insertIcSt11char_traitsIcEERSt13basic_ostreamIT_T0_ES6_PKS3_l(ptr noundef nonnull align 8 dereferenceable(8) %0, ptr noundef nonnull @.str.279, i64 noundef 3)
  ret void
}